target datalayout = "e-m:e-p270:32:32-p271:32:32-p272:64:64-i64:64-i128:128-f80:128-n8:16:32:64-S128"
target triple = "x86_64-pc-linux-gnu"

%struct.dt_import_metadata_t = type { ptr, ptr, ptr, ptr, ptr }
%struct._GtkTreeIter = type { i32, ptr, ptr, ptr }
%struct._GValue = type { i64, [2 x %union.anon] }
%union.anon = type { i64 }

; Function Attrs: nounwind uwtable
define internal void @_import_metadata_presets_changed(ptr noundef %0, ptr noundef %1) #0 {
  %3 = alloca ptr, align 8
  %4 = alloca ptr, align 8
  %5 = alloca %struct._GtkTreeIter, align 8
  %6 = alloca ptr, align 8
  %7 = alloca %struct._GValue, align 8
  %8 = alloca ptr, align 8
  %9 = alloca i32, align 4
  %10 = alloca i32, align 4
  %11 = alloca ptr, align 8
  %12 = alloca i32, align 4
  store ptr %0, ptr %3, align 8, !tbaa !11
  store ptr %1, ptr %4, align 8, !tbaa !6
  call void @llvm.lifetime.start.p0(i64 32, ptr %5) #7
  %13 = load ptr, ptr %3, align 8, !tbaa !11
  %14 = call i64 @gtk_combo_box_get_type() #8
  %15 = call ptr @g_type_check_instance_cast(ptr noundef %13, i64 noundef %14)
  %16 = call i32 @gtk_combo_box_get_active_iter(ptr noundef %15, ptr noundef %5)
  %17 = icmp eq i32 %16, 1
  br i1 %17, label %18, label %73

18:                                               ; preds = %2
  call void @llvm.lifetime.start.p0(i64 8, ptr %6) #7
  %19 = load ptr, ptr %3, align 8, !tbaa !11
  %20 = call i64 @gtk_combo_box_get_type() #8
  %21 = call ptr @g_type_check_instance_cast(ptr noundef %19, i64 noundef %20)
  %22 = call ptr @gtk_combo_box_get_model(ptr noundef %21)
  store ptr %22, ptr %6, align 8, !tbaa !89
  call void @llvm.lifetime.start.p0(i64 24, ptr %7) #7
  call void @llvm.memset.p0.i64(ptr align 8 %7, i8 0, i64 24, i1 false)
  call void @llvm.lifetime.start.p0(i64 8, ptr %8) #7
  call void @llvm.lifetime.start.p0(i64 4, ptr %9) #7
  store i32 0, ptr %9, align 4, !tbaa !61
  br label %23

23:                                               ; preds = %69, %18
  %24 = load i32, ptr %9, align 4, !tbaa !61
  %25 = icmp ult i32 %24, 9
  br i1 %25, label %27, label %26

26:                                               ; preds = %23
  call void @llvm.lifetime.end.p0(i64 4, ptr %9) #7
  br label %72

27:                                               ; preds = %23
  %28 = load ptr, ptr %6, align 8, !tbaa !89
  %29 = load i32, ptr %9, align 4, !tbaa !61
  %30 = add i32 %29, 1
  call void @gtk_tree_model_get_value(ptr noundef %28, ptr noundef %5, i32 noundef %30, ptr noundef %7)
  %31 = call ptr @g_value_get_string(ptr noundef %7)
  store ptr %31, ptr %8, align 8, !tbaa !65
  %32 = icmp ne ptr %31, null
  br i1 %32, label %33, label %68

33:                                               ; preds = %27
  %34 = load ptr, ptr %8, align 8, !tbaa !65
  %35 = getelementptr inbounds i8, ptr %34, i64 0
  %36 = load i8, ptr %35, align 1, !tbaa !78
  %37 = sext i8 %36 to i32
  %38 = icmp ne i32 %37, 0
  br i1 %38, label %39, label %68

39:                                               ; preds = %33
  call void @llvm.lifetime.start.p0(i64 4, ptr %10) #7
  %40 = load i32, ptr %9, align 4, !tbaa !61
  %41 = call i32 @dt_metadata_get_keyid_by_display_order(i32 noundef %40)
  store i32 %41, ptr %10, align 4, !tbaa !61
  call void @llvm.lifetime.start.p0(i64 8, ptr %11) #7
  %42 = load ptr, ptr %4, align 8, !tbaa !6
  %43 = getelementptr inbounds nuw %struct.dt_import_metadata_t, ptr %42, i32 0, i32 2
  %44 = load ptr, ptr %43, align 8, !tbaa !13
  %45 = call i64 @gtk_grid_get_type() #8
  %46 = call ptr @g_type_check_instance_cast(ptr noundef %44, i64 noundef %45)
  %47 = load i32, ptr %10, align 4, !tbaa !61
  %48 = add i32 %47, 1
  %49 = call ptr @gtk_grid_get_child_at(ptr noundef %46, i32 noundef 1, i32 noundef %48)
  store ptr %49, ptr %11, align 8, !tbaa !11
  call void @llvm.lifetime.start.p0(i64 4, ptr %12) #7
  %50 = load ptr, ptr %11, align 8, !tbaa !11
  %51 = call i32 @gtk_widget_get_visible(ptr noundef %50)
  store i32 %51, ptr %12, align 4, !tbaa !61
  %52 = load i32, ptr %12, align 4, !tbaa !61
  %53 = icmp ne i32 %52, 0
  br i1 %53, label %54, label %67

54:                                               ; preds = %39
  %55 = load ptr, ptr %11, align 8, !tbaa !11
  %56 = load ptr, ptr %4, align 8, !tbaa !6
  %57 = call i32 @g_signal_handlers_block_matched(ptr noundef %55, i32 noundef 24, i32 noundef 0, i32 noundef 0, ptr noundef null, ptr noundef @_import_metadata_changed, ptr noundef %56)
  %58 = load ptr, ptr %11, align 8, !tbaa !11
  %59 = call i64 @gtk_entry_get_type() #8
  %60 = call ptr @g_type_check_instance_cast(ptr noundef %58, i64 noundef %59)
  %61 = load ptr, ptr %8, align 8, !tbaa !65
  call void @gtk_entry_set_text(ptr noundef %60, ptr noundef %61)
  %62 = load ptr, ptr %11, align 8, !tbaa !11
  %63 = load ptr, ptr %4, align 8, !tbaa !6
  %64 = call i32 @g_signal_handlers_unblock_matched(ptr noundef %62, i32 noundef 24, i32 noundef 0, i32 noundef 0, ptr noundef null, ptr noundef @_import_metadata_changed, ptr noundef %63)
  %65 = load ptr, ptr %11, align 8, !tbaa !11
  %66 = load ptr, ptr %4, align 8, !tbaa !6
  call void @_metadata_save(ptr noundef %65, ptr noundef %66)
  br label %67

67:                                               ; preds = %54, %39
  call void @llvm.lifetime.end.p0(i64 4, ptr %12) #7
  call void @llvm.lifetime.end.p0(i64 8, ptr %11) #7
  call void @llvm.lifetime.end.p0(i64 4, ptr %10) #7
  br label %68

68:                                               ; preds = %67, %33, %27
  call void @g_value_unset(ptr noundef %7)
  br label %69

69:                                               ; preds = %68
  %70 = load i32, ptr %9, align 4, !tbaa !61
  %71 = add i32 %70, 1
  store i32 %71, ptr %9, align 4, !tbaa !61
  br label %23

72:                                               ; preds = %26
  call void @llvm.lifetime.end.p0(i64 8, ptr %8) #7
  call void @llvm.lifetime.end.p0(i64 24, ptr %7) #7
  call void @llvm.lifetime.end.p0(i64 8, ptr %6) #7
  br label %73

73:                                               ; preds = %72, %2
  call void @llvm.lifetime.end.p0(i64 32, ptr %5) #7
  ret void
}