; Function Attrs: nounwind uwtable
define internal void @_import_metadata_presets_changed(ptr noundef %0, ptr noundef %1) #0 {
  %3 = alloca %struct._GtkTreeIter, align 8
  %4 = alloca %struct._GValue, align 8
  call void @llvm.lifetime.start.p0(i64 32, ptr nonnull %3) #10
  %5 = tail call i64 @gtk_combo_box_get_type() #11
  %6 = tail call ptr @g_type_check_instance_cast(ptr noundef %0, i64 noundef %5) #10
  %7 = call i32 @gtk_combo_box_get_active_iter(ptr noundef %6, ptr noundef nonnull %3) #10
  %8 = icmp eq i32 %7, 1
  br i1 %8, label %9, label %33

9:                                                ; preds = %2
  %10 = call ptr @g_type_check_instance_cast(ptr noundef %0, i64 noundef %5) #10
  %11 = call ptr @gtk_combo_box_get_model(ptr noundef %10) #10
  call void @llvm.lifetime.start.p0(i64 24, ptr nonnull %4) #10
  call void @llvm.memset.p0.i64(ptr noundef nonnull align 8 dereferenceable(24) %4, i8 0, i64 24, i1 false)
  %12 = getelementptr inbounds nuw i8, ptr %1, i64 16
  br label %14

13:                                               ; preds = %32
  call void @llvm.lifetime.end.p0(i64 24, ptr nonnull %4) #10
  br label %33

14:                                               ; preds = %9, %32
  %.022 = phi i32 [ 0, %9 ], [ %15, %32 ]
  %15 = add nuw nsw i32 %.022, 1
  call void @gtk_tree_model_get_value(ptr noundef %11, ptr noundef nonnull %3, i32 noundef %15, ptr noundef nonnull %4) #10
  %16 = call ptr @g_value_get_string(ptr noundef nonnull %4) #10
  %.not = icmp eq ptr %16, null
  br i1 %.not, label %32, label %17

17:                                               ; preds = %14
  %18 = load i8, ptr %16, align 1, !tbaa !71
  %.not20 = icmp eq i8 %18, 0
  br i1 %.not20, label %32, label %19

19:                                               ; preds = %17
  %20 = call i32 @dt_metadata_get_keyid_by_display_order(i32 noundef %.022) #10
  %21 = load ptr, ptr %12, align 8, !tbaa !6
  %22 = tail call i64 @gtk_grid_get_type() #11
  %23 = call ptr @g_type_check_instance_cast(ptr noundef %21, i64 noundef %22) #10
  %24 = add i32 %20, 1
  %25 = call ptr @gtk_grid_get_child_at(ptr noundef %23, i32 noundef 1, i32 noundef %24) #10
  %26 = call i32 @gtk_widget_get_visible(ptr noundef %25) #10
  %.not21 = icmp eq i32 %26, 0
  br i1 %.not21, label %32, label %27

27:                                               ; preds = %19
  %28 = call i32 @g_signal_handlers_block_matched(ptr noundef %25, i32 noundef 24, i32 noundef 0, i32 noundef 0, ptr noundef null, ptr noundef nonnull @_import_metadata_changed, ptr noundef nonnull %1) #10
  %29 = tail call i64 @gtk_entry_get_type() #11
  %30 = call ptr @g_type_check_instance_cast(ptr noundef %25, i64 noundef %29) #10
  call void @gtk_entry_set_text(ptr noundef %30, ptr noundef nonnull %16) #10
  %31 = call i32 @g_signal_handlers_unblock_matched(ptr noundef %25, i32 noundef 24, i32 noundef 0, i32 noundef 0, ptr noundef null, ptr noundef nonnull @_import_metadata_changed, ptr noundef nonnull %1) #10
  call fastcc void @_metadata_save(ptr noundef %25)
  br label %32

32:                                               ; preds = %19, %27, %17, %14
  call void @g_value_unset(ptr noundef nonnull %4) #10
  %exitcond.not = icmp eq i32 %15, 9
  br i1 %exitcond.not, label %13, label %14

33:                                               ; preds = %13, %2
  call void @llvm.lifetime.end.p0(i64 32, ptr nonnull %3) #10
  ret void
}